target datalayout = "e-m:e-p270:32:32-p271:32:32-p272:64:64-i64:64-i128:128-f80:128-n8:16:32:64-S128"
target triple = "x86_64-pc-linux-gnu"

%struct.VC2EncContext = type { ptr, %struct.PutBitContext, [3 x %struct.Plane], ptr, %struct.DiracVersionInfo, ptr, [3 x %struct.TransformArgs], i32, i32, i32, i32, i32, i32, i32, [5 x [4 x i8]], i32, [116 x [2 x i32]], i32, i32, i32, i32, i32, i32, i32, i32, i32, i32, i32, double, i32, i32, i32, i32, i32, i32, i32, i32, i32 }
%struct.PutBitContext = type { i32, i32, ptr, ptr, ptr }
%struct.Plane = type { [5 x [4 x %struct.SubBand]], ptr, i32, i32, i32, i32, i64 }
%struct.SubBand = type { ptr, i64, i32, i32 }
%struct.DiracVersionInfo = type { i32, i32 }
%struct.TransformArgs = type { ptr, ptr, ptr, i64, i32, %struct.VC2TransformContext }
%struct.VC2TransformContext = type { ptr, i32, [7 x ptr] }
%struct.SliceArgs = type { ptr, %union.anon.2, i32, i32, i32, i32, i32, i32 }
%union.anon.2 = type { ptr, [456 x i8] }

@__const.rate_control.quant_buf = private unnamed_addr constant [2 x i32] [i32 -1, i32 -1], align 4

; Function Attrs: alwaysinline nounwind willreturn memory(none) uwtable
define internal i32 @av_clip_c(i32 noundef %0, i32 noundef %1, i32 noundef %2) #3 {
  %4 = alloca i32, align 4
  %5 = alloca i32, align 4
  %6 = alloca i32, align 4
  %7 = alloca i32, align 4
  store i32 %0, ptr %5, align 4, !tbaa !49
  store i32 %1, ptr %6, align 4, !tbaa !49
  store i32 %2, ptr %7, align 4, !tbaa !49
  %8 = load i32, ptr %5, align 4, !tbaa !49
  %9 = load i32, ptr %6, align 4, !tbaa !49
  %10 = icmp slt i32 %8, %9
  br i1 %10, label %11, label %13

11:                                               ; preds = %3
  %12 = load i32, ptr %6, align 4, !tbaa !49
  store i32 %12, ptr %4, align 4
  br label %21

13:                                               ; preds = %3
  %14 = load i32, ptr %5, align 4, !tbaa !49
  %15 = load i32, ptr %7, align 4, !tbaa !49
  %16 = icmp sgt i32 %14, %15
  br i1 %16, label %17, label %19

17:                                               ; preds = %13
  %18 = load i32, ptr %7, align 4, !tbaa !49
  store i32 %18, ptr %4, align 4
  br label %21

19:                                               ; preds = %13
  %20 = load i32, ptr %5, align 4, !tbaa !49
  store i32 %20, ptr %4, align 4
  br label %21

21:                                               ; preds = %19, %17, %11
  %22 = load i32, ptr %4, align 4
  ret i32 %22
}

; Function Attrs: nounwind uwtable
define internal i32 @rate_control(ptr noundef %0, ptr noundef %1) #6 {
  %3 = alloca ptr, align 8
  %4 = alloca ptr, align 8
  %5 = alloca ptr, align 8
  %6 = alloca ptr, align 8
  %7 = alloca i32, align 4
  %8 = alloca i32, align 4
  %9 = alloca [2 x i32], align 4
  %10 = alloca i32, align 4
  %11 = alloca i32, align 4
  %12 = alloca i32, align 4
  %13 = alloca i32, align 4
  %14 = alloca i32, align 4
  %15 = alloca i32, align 4
  store ptr %0, ptr %3, align 8, !tbaa !4
  store ptr %1, ptr %4, align 8, !tbaa !149
  call void @llvm.lifetime.start.p0(i64 8, ptr %5) #13
  %16 = load ptr, ptr %4, align 8, !tbaa !149
  store ptr %16, ptr %5, align 8, !tbaa !161
  call void @llvm.lifetime.start.p0(i64 8, ptr %6) #13
  %17 = load ptr, ptr %5, align 8, !tbaa !161
  %18 = getelementptr inbounds nuw %struct.SliceArgs, ptr %17, i32 0, i32 0
  %19 = load ptr, ptr %18, align 8, !tbaa !162
  store ptr %19, ptr %6, align 8, !tbaa !29
  call void @llvm.lifetime.start.p0(i64 4, ptr %7) #13
  %20 = load ptr, ptr %5, align 8, !tbaa !161
  %21 = getelementptr inbounds nuw %struct.SliceArgs, ptr %20, i32 0, i32 5
  %22 = load i32, ptr %21, align 4, !tbaa !166
  store i32 %22, ptr %7, align 4, !tbaa !49
  call void @llvm.lifetime.start.p0(i64 4, ptr %8) #13
  %23 = load ptr, ptr %5, align 8, !tbaa !161
  %24 = getelementptr inbounds nuw %struct.SliceArgs, ptr %23, i32 0, i32 6
  %25 = load i32, ptr %24, align 8, !tbaa !167
  store i32 %25, ptr %8, align 4, !tbaa !49
  call void @llvm.lifetime.start.p0(i64 8, ptr %9) #13
  call void @llvm.memcpy.p0.p0.i64(ptr align 4 %9, ptr align 4 @__const.rate_control.quant_buf, i64 8, i1 false)
  call void @llvm.lifetime.start.p0(i64 4, ptr %10) #13
  %26 = load ptr, ptr %5, align 8, !tbaa !161
  %27 = getelementptr inbounds nuw %struct.SliceArgs, ptr %26, i32 0, i32 4
  %28 = load i32, ptr %27, align 8, !tbaa !173
  store i32 %28, ptr %10, align 4, !tbaa !49
  call void @llvm.lifetime.start.p0(i64 4, ptr %11) #13
  store i32 1, ptr %11, align 4, !tbaa !49
  call void @llvm.lifetime.start.p0(i64 4, ptr %12) #13
  call void @llvm.lifetime.start.p0(i64 4, ptr %13) #13
  %29 = load ptr, ptr %5, align 8, !tbaa !161
  %30 = load i32, ptr %10, align 4, !tbaa !49
  %31 = call i32 @count_hq_slice(ptr noundef %29, i32 noundef %30)
  store i32 %31, ptr %13, align 4, !tbaa !49
  br label %32

32:                                               ; preds = %107, %2
  %33 = load i32, ptr %13, align 4, !tbaa !49
  %34 = load i32, ptr %7, align 4, !tbaa !49
  %35 = icmp sgt i32 %33, %34
  br i1 %35, label %40, label %36

36:                                               ; preds = %32
  %37 = load i32, ptr %13, align 4, !tbaa !49
  %38 = load i32, ptr %8, align 4, !tbaa !49
  %39 = icmp slt i32 %37, %38
  br label %40

40:                                               ; preds = %36, %32
  %41 = phi i1 [ true, %32 ], [ %39, %36 ]
  br i1 %41, label %42, label %108

42:                                               ; preds = %40
  call void @llvm.lifetime.start.p0(i64 4, ptr %14) #13
  %43 = load i32, ptr %13, align 4, !tbaa !49
  %44 = load i32, ptr %7, align 4, !tbaa !49
  %45 = icmp sgt i32 %43, %44
  br i1 %45, label %46, label %48

46:                                               ; preds = %42
  %47 = load i32, ptr %11, align 4, !tbaa !49
  br label %51

48:                                               ; preds = %42
  %49 = load i32, ptr %11, align 4, !tbaa !49
  %50 = sub nsw i32 0, %49
  br label %51

51:                                               ; preds = %48, %46
  %52 = phi i32 [ %47, %46 ], [ %50, %48 ]
  store i32 %52, ptr %14, align 4, !tbaa !49
  %53 = load i32, ptr %10, align 4, !tbaa !49
  %54 = load i32, ptr %14, align 4, !tbaa !49
  %55 = add nsw i32 %53, %54
  %56 = load ptr, ptr %6, align 8, !tbaa !29
  %57 = getelementptr inbounds nuw %struct.VC2EncContext, ptr %56, i32 0, i32 26
  %58 = load i32, ptr %57, align 8, !tbaa !37
  %59 = sub nsw i32 %58, 1
  %60 = call i32 @av_clip_c(i32 noundef %55, i32 noundef 0, i32 noundef %59) #14
  store i32 %60, ptr %10, align 4, !tbaa !49
  %61 = load ptr, ptr %5, align 8, !tbaa !161
  %62 = load i32, ptr %10, align 4, !tbaa !49
  %63 = call i32 @count_hq_slice(ptr noundef %61, i32 noundef %62)
  store i32 %63, ptr %13, align 4, !tbaa !49
  %64 = getelementptr inbounds [2 x i32], ptr %9, i64 0, i64 1
  %65 = load i32, ptr %64, align 4, !tbaa !49
  %66 = load i32, ptr %10, align 4, !tbaa !49
  %67 = icmp eq i32 %65, %66
  br i1 %67, label %68, label %90

68:                                               ; preds = %51
  %69 = getelementptr inbounds [2 x i32], ptr %9, i64 0, i64 0
  %70 = load i32, ptr %69, align 4, !tbaa !49
  %71 = load i32, ptr %10, align 4, !tbaa !49
  %72 = icmp sgt i32 %70, %71
  br i1 %72, label %73, label %76

73:                                               ; preds = %68
  %74 = getelementptr inbounds [2 x i32], ptr %9, i64 0, i64 0
  %75 = load i32, ptr %74, align 4, !tbaa !49
  br label %78

76:                                               ; preds = %68
  %77 = load i32, ptr %10, align 4, !tbaa !49
  br label %78

78:                                               ; preds = %76, %73
  %79 = phi i32 [ %75, %73 ], [ %77, %76 ]
  store i32 %79, ptr %10, align 4, !tbaa !49
  %80 = load i32, ptr %10, align 4, !tbaa !49
  %81 = getelementptr inbounds [2 x i32], ptr %9, i64 0, i64 0
  %82 = load i32, ptr %81, align 4, !tbaa !49
  %83 = icmp eq i32 %80, %82
  br i1 %83, label %84, label %86

84:                                               ; preds = %78
  %85 = load i32, ptr %12, align 4, !tbaa !49
  br label %88

86:                                               ; preds = %78
  %87 = load i32, ptr %13, align 4, !tbaa !49
  br label %88

88:                                               ; preds = %86, %84
  %89 = phi i32 [ %85, %84 ], [ %87, %86 ]
  store i32 %89, ptr %13, align 4, !tbaa !49
  store i32 3, ptr %15, align 4
  br label %105

90:                                               ; preds = %51
  %91 = load i32, ptr %11, align 4, !tbaa !49
  %92 = sdiv i32 %91, 2
  %93 = load ptr, ptr %6, align 8, !tbaa !29
  %94 = getelementptr inbounds nuw %struct.VC2EncContext, ptr %93, i32 0, i32 26
  %95 = load i32, ptr %94, align 8, !tbaa !37
  %96 = sub nsw i32 %95, 1
  %97 = sdiv i32 %96, 2
  %98 = call i32 @av_clip_c(i32 noundef %92, i32 noundef 1, i32 noundef %97) #14
  store i32 %98, ptr %11, align 4, !tbaa !49
  %99 = getelementptr inbounds [2 x i32], ptr %9, i64 0, i64 0
  %100 = load i32, ptr %99, align 4, !tbaa !49
  %101 = getelementptr inbounds [2 x i32], ptr %9, i64 0, i64 1
  store i32 %100, ptr %101, align 4, !tbaa !49
  %102 = load i32, ptr %10, align 4, !tbaa !49
  %103 = getelementptr inbounds [2 x i32], ptr %9, i64 0, i64 0
  store i32 %102, ptr %103, align 4, !tbaa !49
  %104 = load i32, ptr %13, align 4, !tbaa !49
  store i32 %104, ptr %12, align 4, !tbaa !49
  store i32 0, ptr %15, align 4
  br label %105

105:                                              ; preds = %90, %88
  call void @llvm.lifetime.end.p0(i64 4, ptr %14) #13
  %106 = load i32, ptr %15, align 4
  switch i32 %106, label %137 [
    i32 0, label %107
    i32 3, label %108
  ]

107:                                              ; preds = %105
  br label %32, !llvm.loop !189

108:                                              ; preds = %105, %40
  %109 = load i32, ptr %10, align 4, !tbaa !49
  %110 = load ptr, ptr %6, align 8, !tbaa !29
  %111 = getelementptr inbounds nuw %struct.VC2EncContext, ptr %110, i32 0, i32 26
  %112 = load i32, ptr %111, align 8, !tbaa !37
  %113 = sub nsw i32 %112, 1
  %114 = call i32 @av_clip_c(i32 noundef %109, i32 noundef 0, i32 noundef %113) #14
  %115 = load ptr, ptr %5, align 8, !tbaa !161
  %116 = getelementptr inbounds nuw %struct.SliceArgs, ptr %115, i32 0, i32 4
  store i32 %114, ptr %116, align 8, !tbaa !173
  %117 = load i32, ptr %13, align 4, !tbaa !49
  %118 = ashr i32 %117, 3
  %119 = load ptr, ptr %6, align 8, !tbaa !29
  %120 = getelementptr inbounds nuw %struct.VC2EncContext, ptr %119, i32 0, i32 20
  %121 = load i32, ptr %120, align 8, !tbaa !117
  %122 = add nsw i32 %118, %121
  %123 = sub nsw i32 %122, 1
  %124 = load ptr, ptr %6, align 8, !tbaa !29
  %125 = getelementptr inbounds nuw %struct.VC2EncContext, ptr %124, i32 0, i32 20
  %126 = load i32, ptr %125, align 8, !tbaa !117
  %127 = sub nsw i32 %126, 1
  %128 = xor i32 %127, -1
  %129 = and i32 %123, %128
  %130 = add nsw i32 %129, 4
  %131 = load ptr, ptr %6, align 8, !tbaa !29
  %132 = getelementptr inbounds nuw %struct.VC2EncContext, ptr %131, i32 0, i32 19
  %133 = load i32, ptr %132, align 4, !tbaa !118
  %134 = add nsw i32 %130, %133
  %135 = load ptr, ptr %5, align 8, !tbaa !161
  %136 = getelementptr inbounds nuw %struct.SliceArgs, ptr %135, i32 0, i32 7
  store i32 %134, ptr %136, align 4, !tbaa !170
  store i32 1, ptr %15, align 4
  call void @llvm.lifetime.end.p0(i64 4, ptr %13) #13
  call void @llvm.lifetime.end.p0(i64 4, ptr %12) #13
  call void @llvm.lifetime.end.p0(i64 4, ptr %11) #13
  call void @llvm.lifetime.end.p0(i64 4, ptr %10) #13
  call void @llvm.lifetime.end.p0(i64 8, ptr %9) #13
  call void @llvm.lifetime.end.p0(i64 4, ptr %8) #13
  call void @llvm.lifetime.end.p0(i64 4, ptr %7) #13
  call void @llvm.lifetime.end.p0(i64 8, ptr %6) #13
  call void @llvm.lifetime.end.p0(i64 8, ptr %5) #13
  ret i32 0

137:                                              ; preds = %105
  unreachable
}