; Function Attrs: nofree norecurse nosync nounwind memory(read, argmem: readwrite, inaccessiblemem: none) uwtable
define internal noundef i32 @rate_control(ptr readnone captures(none) %0, ptr noundef captures(none) %1) #8 {
  %3 = load ptr, ptr %1, align 8, !tbaa !137
  %4 = getelementptr inbounds nuw i8, ptr %1, i64 484
  %5 = load i32, ptr %4, align 4, !tbaa !141
  %6 = getelementptr inbounds nuw i8, ptr %1, i64 488
  %7 = load i32, ptr %6, align 8, !tbaa !142
  %8 = getelementptr inbounds nuw i8, ptr %1, i64 480
  %9 = load i32, ptr %8, align 8, !tbaa !150
  %10 = tail call fastcc i32 @count_hq_slice(ptr noundef nonnull %1, i32 noundef %9)
  %11 = icmp sgt i32 %10, %5
  %12 = icmp slt i32 %10, %7
  %13 = select i1 %11, i1 true, i1 %12
  br i1 %13, label %.lr.ph, label %.loopexit

.lr.ph:                                           ; preds = %2
  %14 = getelementptr inbounds nuw i8, ptr %3, i64 2952
  %15 = load i32, ptr %14, align 8, !tbaa !34
  %16 = select i1 %11, i32 1, i32 -1
  %17 = add nsw i32 %16, %9
  %18 = add nsw i32 %15, -1
  %19 = icmp slt i32 %17, 0
  %..i87 = tail call i32 @llvm.smin.i32(i32 %17, i32 %18)
  %.0.i88 = select i1 %19, i32 0, i32 %..i87
  %20 = tail call fastcc i32 @count_hq_slice(ptr noundef nonnull %1, i32 noundef %.0.i88)
  %21 = icmp eq i32 %.0.i88, -1
  br i1 %21, label %.thread, label %.lr.ph91

22:                                               ; preds = %.lr.ph91
  %23 = load i32, ptr %14, align 8, !tbaa !34
  %24 = select i1 %33, i32 1, i32 -1
  %25 = add nsw i32 %24, %.0.i90
  %26 = add nsw i32 %23, -1
  %27 = icmp slt i32 %25, 0
  %..i = tail call i32 @llvm.smin.i32(i32 %25, i32 %26)
  %.0.i = select i1 %27, i32 0, i32 %..i
  %28 = tail call fastcc i32 @count_hq_slice(ptr noundef nonnull %1, i32 noundef %.0.i)
  %29 = icmp eq i32 %.sroa.0.06789, %.0.i
  br i1 %29, label %.thread, label %.lr.ph91

.thread:                                          ; preds = %22, %.lr.ph
  %.sroa.8.071.lcssa = phi i32 [ -1, %.lr.ph ], [ %.sroa.0.06789, %22 ]
  %.04270.lcssa = phi i32 [ undef, %.lr.ph ], [ %32, %22 ]
  %.sroa.0.067.lcssa = phi i32 [ -1, %.lr.ph ], [ %.0.i90, %22 ]
  %.lcssa = phi i32 [ %20, %.lr.ph ], [ %28, %22 ]
  %30 = tail call i32 @llvm.smax.i32(i32 %.sroa.0.067.lcssa, i32 %.sroa.8.071.lcssa)
  %.not = icmp slt i32 %.sroa.0.067.lcssa, %.sroa.8.071.lcssa
  %31 = select i1 %.not, i32 %.lcssa, i32 %.04270.lcssa
  br label %.loopexit

.lr.ph91:                                         ; preds = %.lr.ph, %22
  %32 = phi i32 [ %28, %22 ], [ %20, %.lr.ph ]
  %.0.i90 = phi i32 [ %.0.i, %22 ], [ %.0.i88, %.lr.ph ]
  %.sroa.0.06789 = phi i32 [ %.0.i90, %22 ], [ -1, %.lr.ph ]
  %33 = icmp sgt i32 %32, %5
  %34 = icmp slt i32 %32, %7
  %35 = select i1 %33, i1 true, i1 %34
  br i1 %35, label %22, label %.loopexit

.loopexit:                                        ; preds = %.lr.ph91, %2, %.thread
  %.147 = phi i32 [ %30, %.thread ], [ %9, %2 ], [ %.0.i90, %.lr.ph91 ]
  %.1 = phi i32 [ %31, %.thread ], [ %10, %2 ], [ %32, %.lr.ph91 ]
  %36 = getelementptr inbounds nuw i8, ptr %3, i64 2952
  %37 = load i32, ptr %36, align 8, !tbaa !34
  %38 = add nsw i32 %37, -1
  %39 = icmp slt i32 %.147, 0
  %..i53 = tail call i32 @llvm.smin.i32(i32 %.147, i32 %38)
  %.0.i54 = select i1 %39, i32 0, i32 %..i53
  store i32 %.0.i54, ptr %8, align 8, !tbaa !150
  %40 = ashr i32 %.1, 3
  %41 = getelementptr inbounds nuw i8, ptr %3, i64 2928
  %42 = load i32, ptr %41, align 8, !tbaa !105
  %43 = add nsw i32 %40, -1
  %44 = add i32 %43, %42
  %45 = sub i32 0, %42
  %46 = and i32 %44, %45
  %47 = getelementptr inbounds nuw i8, ptr %3, i64 2924
  %48 = load i32, ptr %47, align 4, !tbaa !100
  %49 = add i32 %48, 4
  %50 = add i32 %49, %46
  %51 = getelementptr inbounds nuw i8, ptr %1, i64 492
  store i32 %50, ptr %51, align 4, !tbaa !146
  ret i32 0
}